; Function Attrs: mustprogress uwtable
define void @_ZNK10open_spiel8dark_hex12DarkHexState12ViewToStringB5cxx11Ei(ptr dead_on_unwind noalias nonnull writable sret(%"class.std::__cxx11::basic_string") align 8 %0, ptr noundef nonnull readonly align 8 captures(none) dereferenceable(280) %1, i32 noundef %2) local_unnamed_addr #3 align 2 personality ptr @__gxx_personality_v0 {
  %4 = alloca %"class.absl::debian2::AlphaNum", align 8
  %5 = alloca %"class.std::__cxx11::basic_string", align 8
  %6 = alloca %"class.absl::debian2::AlphaNum", align 8
  %7 = icmp eq i32 %2, 0
  %.v = select i1 %7, i64 232, i64 256
  %8 = getelementptr inbounds nuw i8, ptr %1, i64 %.v
  tail call void @_ZNSt7__cxx1112basic_stringIcSt11char_traitsIcESaIcEEC1Ev(ptr noundef nonnull align 8 dereferenceable(32) %0) #23
  %9 = getelementptr inbounds nuw i8, ptr %1, i64 188
  %10 = load i32, ptr %9, align 4
  %11 = icmp sgt i32 %10, 0
  br i1 %11, label %.preheader.lr.ph, label %._crit_edge19

.preheader.lr.ph:                                 ; preds = %3
  %12 = getelementptr inbounds nuw i8, ptr %1, i64 184
  %13 = getelementptr inbounds nuw i8, ptr %4, i64 8
  %14 = getelementptr inbounds nuw i8, ptr %6, i64 8
  br label %.preheader

.preheader:                                       ; preds = %.preheader.lr.ph, %40
  %15 = phi i32 [ %10, %.preheader.lr.ph ], [ %41, %40 ]
  %.01418 = phi i32 [ 0, %.preheader.lr.ph ], [ %42, %40 ]
  %16 = load i32, ptr %12, align 8
  %17 = icmp sgt i32 %16, 0
  br i1 %17, label %.lr.ph, label %._crit_edge

.lr.ph:                                           ; preds = %.preheader, %30
  %18 = phi i32 [ %32, %30 ], [ %16, %.preheader ]
  %.01317 = phi i32 [ %31, %30 ], [ 0, %.preheader ]
  %19 = mul nsw i32 %18, %.01418
  %20 = add nsw i32 %19, %.01317
  %21 = sext i32 %20 to i64
  %22 = load ptr, ptr %8, align 8
  %23 = getelementptr inbounds i32, ptr %22, i64 %21
  %24 = load i32, ptr %23, align 4
  invoke void @_ZN10open_spiel3hex13StateToStringB5cxx11ENS0_9CellStateE(ptr dead_on_unwind nonnull writable sret(%"class.std::__cxx11::basic_string") align 8 %5, i32 noundef %24)
          to label %25 unwind label %.loopexit

25:                                               ; preds = %.lr.ph
  %26 = call noundef ptr @_ZNKSt7__cxx1112basic_stringIcSt11char_traitsIcESaIcEE4dataEv(ptr noundef nonnull align 8 dereferenceable(32) %5) #23
  %27 = call noundef i64 @_ZNKSt7__cxx1112basic_stringIcSt11char_traitsIcESaIcEE4sizeEv(ptr noundef nonnull align 8 dereferenceable(32) %5) #23
  store ptr %26, ptr %4, align 8
  %28 = icmp sgt i64 %27, -1
  br i1 %28, label %_ZN4absl7debian28AlphaNumC2ISaIcEEERKNSt7__cxx1112basic_stringIcSt11char_traitsIcET_EE.exit, label %29

29:                                               ; preds = %25
  call void @llvm.trap()
  unreachable

_ZN4absl7debian28AlphaNumC2ISaIcEEERKNSt7__cxx1112basic_stringIcSt11char_traitsIcET_EE.exit: ; preds = %25
  store i64 %27, ptr %13, align 8
  invoke void @_ZN4absl7debian29StrAppendEPNSt7__cxx1112basic_stringIcSt11char_traitsIcESaIcEEERKNS0_8AlphaNumE(ptr noundef nonnull %0, ptr noundef nonnull align 8 dereferenceable(48) %4)
          to label %30 unwind label %34

30:                                               ; preds = %_ZN4absl7debian28AlphaNumC2ISaIcEEERKNSt7__cxx1112basic_stringIcSt11char_traitsIcET_EE.exit
  call void @_ZNSt7__cxx1112basic_stringIcSt11char_traitsIcESaIcEED1Ev(ptr noundef nonnull align 8 dereferenceable(32) %5) #23
  %31 = add nuw nsw i32 %.01317, 1
  %32 = load i32, ptr %12, align 8
  %33 = icmp slt i32 %31, %32
  br i1 %33, label %.lr.ph, label %._crit_edge.loopexit, !llvm.loop !17

.loopexit:                                        ; preds = %.lr.ph
  %lpad.loopexit = landingpad { ptr, i32 }
          cleanup
  br label %44

.loopexit.split-lp:                               ; preds = %39
  %lpad.loopexit.split-lp = landingpad { ptr, i32 }
          cleanup
  br label %44

34:                                               ; preds = %_ZN4absl7debian28AlphaNumC2ISaIcEEERKNSt7__cxx1112basic_stringIcSt11char_traitsIcET_EE.exit
  %35 = landingpad { ptr, i32 }
          cleanup
  call void @_ZNSt7__cxx1112basic_stringIcSt11char_traitsIcESaIcEED1Ev(ptr noundef nonnull align 8 dereferenceable(32) %5) #23
  br label %44

._crit_edge.loopexit:                             ; preds = %30
  %.pre = load i32, ptr %9, align 4
  br label %._crit_edge

._crit_edge:                                      ; preds = %._crit_edge.loopexit, %.preheader
  %36 = phi i32 [ %.pre, %._crit_edge.loopexit ], [ %15, %.preheader ]
  %37 = add nsw i32 %36, -1
  %38 = icmp slt i32 %.01418, %37
  br i1 %38, label %39, label %40

39:                                               ; preds = %._crit_edge
  store ptr @.str.33, ptr %6, align 8
  store i64 1, ptr %14, align 8
  invoke void @_ZN4absl7debian29StrAppendEPNSt7__cxx1112basic_stringIcSt11char_traitsIcESaIcEEERKNS0_8AlphaNumE(ptr noundef nonnull %0, ptr noundef nonnull align 8 dereferenceable(48) %6)
          to label %._crit_edge20 unwind label %.loopexit.split-lp

._crit_edge20:                                    ; preds = %39
  %.pre21 = load i32, ptr %9, align 4
  br label %40

40:                                               ; preds = %._crit_edge20, %._crit_edge
  %41 = phi i32 [ %.pre21, %._crit_edge20 ], [ %36, %._crit_edge ]
  %42 = add nuw nsw i32 %.01418, 1
  %43 = icmp slt i32 %42, %41
  br i1 %43, label %.preheader, label %._crit_edge19, !llvm.loop !18

._crit_edge19:                                    ; preds = %40, %3
  ret void

44:                                               ; preds = %.loopexit, %.loopexit.split-lp, %34
  %.pn = phi { ptr, i32 } [ %35, %34 ], [ %lpad.loopexit, %.loopexit ], [ %lpad.loopexit.split-lp, %.loopexit.split-lp ]
  call void @_ZNSt7__cxx1112basic_stringIcSt11char_traitsIcESaIcEED1Ev(ptr noundef nonnull align 8 dereferenceable(32) %0) #23
  resume { ptr, i32 } %.pn
}